; Function Attrs: mustprogress nofree norecurse nosync nounwind willreturn memory(read, argmem: readwrite, inaccessiblemem: none) uwtable
define internal void @tablet_tool_handle_motion(ptr noundef captures(none) %0, ptr readnone captures(none) %1, i32 noundef %2, i32 noundef %3) #9 {
  %5 = getelementptr inbounds nuw i8, ptr %0, i64 24
  %6 = load ptr, ptr %5, align 8
  %.not = icmp eq ptr %6, null
  br i1 %.not, label %29, label %7

7:                                                ; preds = %4
  %8 = getelementptr inbounds nuw i8, ptr %6, i64 392
  %9 = load ptr, ptr %8, align 8
  %10 = sext i32 %2 to i64
  %11 = add nsw i64 %10, 4807592602218004480
  %12 = bitcast i64 %11 to double
  %13 = fadd double %12, 0xC2B8000000000000
  %14 = getelementptr inbounds nuw i8, ptr %9, i64 280
  %15 = load double, ptr %14, align 8
  %16 = fmul double %13, %15
  %17 = fptrunc double %16 to float
  %18 = getelementptr inbounds nuw i8, ptr %0, i64 40
  store float %17, ptr %18, align 8
  %19 = sext i32 %3 to i64
  %20 = add nsw i64 %19, 4807592602218004480
  %21 = bitcast i64 %20 to double
  %22 = fadd double %21, 0xC2B8000000000000
  %23 = getelementptr inbounds nuw i8, ptr %9, i64 288
  %24 = load double, ptr %23, align 8
  %25 = fmul double %22, %24
  %26 = fptrunc double %25 to float
  %27 = getelementptr inbounds nuw i8, ptr %0, i64 44
  store float %26, ptr %27, align 4
  %28 = getelementptr inbounds nuw i8, ptr %0, i64 48
  store i8 1, ptr %28, align 8
  br label %29

29:                                               ; preds = %7, %4
  ret void
}